Certificate:
    Data:
        Version: 3 (0x2)
        Serial Number:
            eb:f4:05:2d:3d:0f:c6:f3
    Signature Algorithm: sha1WithRSAEncryption
        Issuer: C=US, ST=cyberspace, O=LEAP Encryption Access Project, CN=tests-leap.se/emailAddress=info@leap.se
        Validity
            Not Before: Aug 31 16:30:17 2012 GMT
            Not After : Aug 31 16:30:17 2013 GMT
        Subject: C=US, ST=cyberspace, L=net, O=LEAP Encryption Access Project, CN=localhost/emailAddress=info@leap.se
        Subject Public Key Info:
            Public Key Algorithm: rsaEncryption
                Public-Key: (2048 bit)
                Modulus:
                    00:bc:f1:c4:05:ce:4b:d5:9b:9a:fa:c1:a5:0c:89:
                    15:7e:05:69:b6:a4:62:38:3a:d6:14:4a:36:aa:3c:
                    31:70:54:2e:bf:7d:05:19:ad:7b:0c:a9:a6:7d:46:
                    be:83:62:cb:ea:b9:48:6c:7d:78:a0:10:0b:ad:8a:
                    74:7a:b8:ff:32:85:64:36:90:dc:38:dd:90:6e:07:
                    82:70:ae:5f:4e:1f:f4:46:98:f3:98:b4:fa:08:65:
                    bf:d6:ec:a9:ba:7e:a8:f0:40:a2:d0:1a:cb:e6:fc:
                    95:c5:54:63:92:5b:b8:0a:36:cc:26:d3:2b:ad:16:
                    ff:49:53:f4:65:7c:64:27:9a:f5:12:75:11:a5:0c:
                    5a:ea:1e:e4:31:f3:a6:2b:db:0e:4a:5d:aa:47:3a:
                    f0:5e:2a:d5:6f:74:b6:f8:bc:9a:73:d0:fa:8a:be:
                    a8:69:47:9b:07:45:d9:b5:cd:1c:9b:c5:41:9a:65:
                    cc:99:a0:bd:bf:b5:e8:9f:66:5f:69:c9:6d:c8:68:
                    50:68:74:ae:8e:12:7e:9c:24:4f:dc:05:61:b7:8a:
                    6d:2a:95:43:d9:3f:fe:d8:c9:a7:ae:63:cd:30:d5:
                    95:84:18:2d:12:b5:2d:a6:fe:37:dd:74:b8:f8:a5:
                    59:18:8f:ca:f7:ae:63:0d:9d:66:51:7d:9c:40:48:
                    9b:a1
                Exponent: 65537 (0x10001)
        X509v3 extensions:
            X509v3 Basic Constraints: 
                CA:FALSE
            Netscape Comment: 
                OpenSSL Generated Certificate
            X509v3 Subject Key Identifier: 
                B2:50:B4:C6:38:8F:BA:C4:3B:69:4C:6B:45:7C:CF:08:48:36:02:E0
            X509v3 Authority Key Identifier: 
                keyid:9E:92:44:BF:81:67:96:A2:9B:7E:6E:E6:A6:BB:9D:29:DA:E7:38:0A

    Signature Algorithm: sha1WithRSAEncryption
         aa:ab:d4:27:e3:cb:42:05:55:fd:24:b3:e5:55:7d:fb:ce:6c:
         ff:c7:96:f0:7d:30:a1:53:4a:04:eb:a4:24:5e:96:ee:65:ef:
         e5:aa:08:47:9d:aa:95:2a:bb:6a:28:9f:51:62:63:d9:7d:1a:
         81:a0:72:f7:9f:33:6b:3b:f4:dc:85:cd:2a:ee:83:a9:93:3d:
         75:53:91:fa:0b:1b:10:83:11:2c:03:4e:ac:bf:c3:e6:25:74:
         9f:14:13:4a:43:66:c2:d7:1c:6c:94:3e:a6:f3:a5:bd:01:2c:
         9f:20:29:2e:62:82:12:d8:8b:70:1b:88:2b:18:68:5a:45:80:
         46:2a:6a:d5:df:1f:d3:e8:57:39:0a:be:1a:d8:b0:3e:e5:b6:
         c3:69:b7:5e:c0:7b:b3:a8:a6:78:ee:0a:3d:a0:74:40:fb:42:
         9f:f4:98:7f:47:cc:15:28:eb:b1:95:77:82:a8:65:9b:46:c3:
         4f:f9:f4:72:be:bd:24:28:5c:0d:b3:89:e4:13:71:c8:a7:54:
         1b:26:15:f3:c1:b2:a9:13:77:54:c2:b9:b0:c7:24:39:00:4c:
         1a:a7:9b:e7:ad:4a:3a:32:c2:81:0d:13:2d:27:ea:98:00:a9:
         0e:9e:38:3b:8f:80:34:17:17:3d:49:7e:f4:a5:19:05:28:08:
         7d:de:d3:1f
-----BEGIN CERTIFICATE-----
MIIECjCCAvKgAwIBAgIJAOv0BS09D8bzMA0GCSqGSIb3DQEBBQUAMIGAMQswCQYD
VQQGEwJVUzETMBEGA1UECAwKY3liZXJzcGFjZTEnMCUGA1UECgweTEVBUCBFbmNy
eXB0aW9uIEFjY2VzcyBQcm9qZWN0MRYwFAYDVQQDDA10ZXN0cy1sZWFwLnNlMRsw
GQYJKoZIhvcNAQkBFgxpbmZvQGxlYXAuc2UwHhcNMTIwODMxMTYzMDE3WhcNMTMw
ODMxMTYzMDE3WjCBijELMAkGA1UEBhMCVVMxEzARBgNVBAgMCmN5YmVyc3BhY2Ux
DDAKBgNVBAcMA25ldDEnMCUGA1UECgweTEVBUCBFbmNyeXB0aW9uIEFjY2VzcyBQ
cm9qZWN0MRIwEAYDVQQDDAlsb2NhbGhvc3QxGzAZBgkqhkiG9w0BCQEWDGluZm9A
bGVhcC5zZTCCASIwDQYJKoZIhvcNAQEBBQADggEPADCCAQoCggEBALzxxAXOS9Wb
mvrBpQyJFX4FabakYjg61hRKNqo8MXBULr99BRmtewyppn1GvoNiy+q5SGx9eKAQ
C62KdHq4/zKFZDaQ3DjdkG4HgnCuX04f9EaY85i0+ghlv9bsqbp+qPBAotAay+b8
lcVUY5JbuAo2zCbTK60W/0lT9GV8ZCea9RJ1EaUMWuoe5DHzpivbDkpdqkc68F4q
1W90tvi8mnPQ+oq+qGlHmwdF2bXNHJvFQZplzJmgvb+16J9mX2nJbchoUGh0ro4S
fpwkT9wFYbeKbSqVQ9k//tjJp65jzTDVlYQYLRK1Lab+N910uPilWRiPyveuYw2d
ZlF9nEBIm6ECAwEAAaN7MHkwCQYDVR0TBAIwADAsBglghkgBhvhCAQ0EHxYdT3Bl
blNTTCBHZW5lcmF0ZWQgQ2VydGlmaWNhdGUwHQYDVR0OBBYEFLJQtMY4j7rEO2lM
a0V8zwhINgLgMB8GA1UdIwQYMBaAFJ6SRL+BZ5aim35u5qa7nSna5zgKMA0GCSqG
SIb3DQEBBQUAA4IBAQCqq9Qn48tCBVX9JLPlVX37zmz/x5bwfTChU0oE66QkXpbu
Ze/lqghHnaqVKrtqKJ9RYmPZfRqBoHL3nzNrO/Tchc0q7oOpkz11U5H6CxsQgxEs
A06sv8PmJXSfFBNKQ2bC1xxslD6m86W9ASyfICkuYoIS2ItwG4grGGhaRYBGKmrV
3x/T6Fc5Cr4a2LA+5bbDabdewHuzqKZ47go9oHRA+0Kf9Jh/R8wVKOuxlXeCqGWb
RsNP+fRyvr0kKFwNs4nkE3HIp1QbJhXzwbKpE3dUwrmwxyQ5AEwap5vnrUo6MsKB
DRMtJ+qYAKkOnjg7j4A0Fxc9SX70pRkFKAh93tMf
-----END CERTIFICATE-----
