Certificate:
    Data:
        Version: 3 (0x2)
        Serial Number:
            e4:de:01:76:c4:78:78:7f
    Signature Algorithm: sha1WithRSAEncryption
        Issuer: C=UK, ST=-, O=u1db LOCAL TESTING ONLY, DO NO TRUST, CN=u1db testing CA
        Validity
            Not Before: May  3 11:11:14 2012 GMT
            Not After : May  1 11:11:14 2023 GMT
        Subject: O=u1db LOCAL TESTING ONLY, DO NOT TRUST, CN=localhost
        Subject Public Key Info:
            Public Key Algorithm: rsaEncryption
                Public-Key: (1024 bit)
                Modulus:
                    00:c6:1d:72:d3:c5:e4:fc:d1:4c:d9:e4:08:3e:90:
                    10:ce:3f:1f:87:4a:1d:4f:7f:2a:5a:52:c9:65:4f:
                    d9:2c:bf:69:75:18:1a:b5:c9:09:32:00:47:f5:60:
                    aa:c6:dd:3a:87:37:5f:16:be:de:29:b5:ea:fc:41:
                    7e:eb:77:bb:df:63:c3:06:1e:ed:e9:a0:67:1a:f1:
                    ec:e1:9d:f7:9c:8f:1c:fa:c3:66:7b:39:dc:70:ae:
                    09:1b:9c:c0:9a:c4:90:77:45:8e:39:95:a9:2f:92:
                    43:bd:27:07:5a:99:51:6e:76:a0:af:dd:b1:2c:8f:
                    ca:8b:8c:47:0d:f6:6e:fc:69
                Exponent: 65537 (0x10001)
        X509v3 extensions:
            X509v3 Basic Constraints: 
                CA:FALSE
            Netscape Comment: 
                OpenSSL Generated Certificate
            X509v3 Subject Key Identifier: 
                1C:63:85:E1:1D:F3:89:2E:6C:4E:3F:FB:D0:10:64:5A:C1:22:6A:2A
            X509v3 Authority Key Identifier: 
                keyid:DB:3D:93:51:6C:32:15:54:8F:10:50:FC:49:4F:36:15:28:BB:95:6D

    Signature Algorithm: sha1WithRSAEncryption
         1d:6d:3e:bd:93:fd:bd:3e:17:b8:9f:f0:99:7f:db:50:5c:b2:
         01:42:03:b5:d5:94:05:d3:f6:8e:80:82:55:47:1f:58:f2:18:
         6c:ab:ef:43:2c:2f:10:e1:7c:c4:5c:cc:ac:50:50:22:42:aa:
         35:33:f5:b9:f3:a6:66:55:d9:36:f4:f2:e4:d4:d9:b5:2c:52:
         66:d4:21:17:97:22:b8:9b:d7:0e:7c:3d:ce:85:19:ca:c4:d2:
         58:62:31:c6:18:3e:44:fc:f4:30:b6:95:87:ee:21:4a:08:f0:
         af:3c:8f:c4:ba:5e:a1:5c:37:1a:7d:7b:fe:66:ae:62:50:17:
         31:ca
-----BEGIN CERTIFICATE-----
MIICnzCCAgigAwIBAgIJAOTeAXbEeHh/MA0GCSqGSIb3DQEBBQUAMGIxCzAJBgNV
BAYTAlVLMQowCAYDVQQIDAEtMS0wKwYDVQQKDCR1MWRiIExPQ0FMIFRFU1RJTkcg
T05MWSwgRE8gTk8gVFJVU1QxGDAWBgNVBAMMD3UxZGIgdGVzdGluZyBDQTAeFw0x
MjA1MDMxMTExMTRaFw0yMzA1MDExMTExMTRaMEQxLjAsBgNVBAoMJXUxZGIgTE9D
QUwgVEVTVElORyBPTkxZLCBETyBOT1QgVFJVU1QxEjAQBgNVBAMMCWxvY2FsaG9z
dDCBnzANBgkqhkiG9w0BAQEFAAOBjQAwgYkCgYEAxh1y08Xk/NFM2eQIPpAQzj8f
h0odT38qWlLJZU/ZLL9pdRgatckJMgBH9WCqxt06hzdfFr7eKbXq/EF+63e732PD
Bh7t6aBnGvHs4Z33nI8c+sNmeznccK4JG5zAmsSQd0WOOZWpL5JDvScHWplRbnag
r92xLI/Ki4xHDfZu/GkCAwEAAaN7MHkwCQYDVR0TBAIwADAsBglghkgBhvhCAQ0E
HxYdT3BlblNTTCBHZW5lcmF0ZWQgQ2VydGlmaWNhdGUwHQYDVR0OBBYEFBxjheEd
84kubE4/+9AQZFrBImoqMB8GA1UdIwQYMBaAFNs9k1FsMhVUjxBQ/ElPNhUou5Vt
MA0GCSqGSIb3DQEBBQUAA4GBAB1tPr2T/b0+F7if8Jl/21BcsgFCA7XVlAXT9o6A
glVHH1jyGGyr70MsLxDhfMRczKxQUCJCqjUz9bnzpmZV2Tb08uTU2bUsUmbUIReX
Irib1w58Pc6FGcrE0lhiMcYYPkT89DC2lYfuIUoI8K88j8S6XqFcNxp9e/5mrmJQ
FzHK
-----END CERTIFICATE-----
