Certificate:
    Data:
        Version: 3 (0x2)
        Serial Number:
            e4:de:01:76:c4:78:78:7e
    Signature Algorithm: sha1WithRSAEncryption
        Issuer: C=UK, ST=-, O=u1db LOCAL TESTING ONLY, DO NO TRUST, CN=u1db testing CA
        Validity
            Not Before: May  3 11:11:11 2012 GMT
            Not After : May  1 11:11:11 2023 GMT
        Subject: C=UK, ST=-, O=u1db LOCAL TESTING ONLY, DO NO TRUST, CN=u1db testing CA
        Subject Public Key Info:
            Public Key Algorithm: rsaEncryption
                Public-Key: (1024 bit)
                Modulus:
                    00:bc:91:a5:7f:7d:37:f7:06:c7:db:5b:83:6a:6b:
                    63:c3:8b:5c:f7:84:4d:97:6d:d4:be:bf:e7:79:a8:
                    c1:03:57:ec:90:d4:20:e7:02:95:d9:a6:49:e3:f9:
                    9a:ea:37:b9:b2:02:62:ab:40:d3:42:bb:4a:4e:a2:
                    47:71:0f:1d:a2:c5:94:a1:cf:35:d3:23:32:42:c0:
                    1e:8d:cb:08:58:fb:8a:5c:3e:ea:eb:d5:2c:ed:d6:
                    aa:09:b4:b5:7d:e3:45:c9:ae:c2:82:b2:ae:c0:81:
                    bc:24:06:65:a9:e7:e0:61:ac:25:ee:53:d3:d7:be:
                    22:f7:00:a2:ad:c6:0e:3a:39
                Exponent: 65537 (0x10001)
        X509v3 extensions:
            X509v3 Subject Key Identifier: 
                DB:3D:93:51:6C:32:15:54:8F:10:50:FC:49:4F:36:15:28:BB:95:6D
            X509v3 Authority Key Identifier: 
                keyid:DB:3D:93:51:6C:32:15:54:8F:10:50:FC:49:4F:36:15:28:BB:95:6D

            X509v3 Basic Constraints: 
                CA:TRUE
    Signature Algorithm: sha1WithRSAEncryption
         72:9b:c1:f7:07:65:83:36:25:4e:01:2f:b7:4a:f2:a4:00:28:
         80:c7:56:2c:32:39:90:13:61:4b:bb:12:c5:44:9d:42:57:85:
         28:19:70:69:e1:43:c8:bd:11:f6:94:df:91:2d:c3:ea:82:8d:
         b4:8f:5d:47:a3:00:99:53:29:93:27:6c:c5:da:c1:20:6f:ab:
         ec:4a:be:34:f3:8f:02:e5:0c:c0:03:ac:2b:33:41:71:4f:0a:
         72:5a:b4:26:1a:7f:81:bc:c0:95:8a:06:87:a8:11:9f:5c:73:
         38:df:5a:69:40:21:29:ad:46:23:56:75:e1:e9:8b:10:18:4c:
         7b:54
-----BEGIN CERTIFICATE-----
MIICkjCCAfugAwIBAgIJAOTeAXbEeHh+MA0GCSqGSIb3DQEBBQUAMGIxCzAJBgNV
BAYTAlVLMQowCAYDVQQIDAEtMS0wKwYDVQQKDCR1MWRiIExPQ0FMIFRFU1RJTkcg
T05MWSwgRE8gTk8gVFJVU1QxGDAWBgNVBAMMD3UxZGIgdGVzdGluZyBDQTAeFw0x
MjA1MDMxMTExMTFaFw0yMzA1MDExMTExMTFaMGIxCzAJBgNVBAYTAlVLMQowCAYD
VQQIDAEtMS0wKwYDVQQKDCR1MWRiIExPQ0FMIFRFU1RJTkcgT05MWSwgRE8gTk8g
VFJVU1QxGDAWBgNVBAMMD3UxZGIgdGVzdGluZyBDQTCBnzANBgkqhkiG9w0BAQEF
AAOBjQAwgYkCgYEAvJGlf3039wbH21uDamtjw4tc94RNl23Uvr/neajBA1fskNQg
5wKV2aZJ4/ma6je5sgJiq0DTQrtKTqJHcQ8dosWUoc810yMyQsAejcsIWPuKXD7q
69Us7daqCbS1feNFya7CgrKuwIG8JAZlqefgYawl7lPT174i9wCircYOOjkCAwEA
AaNQME4wHQYDVR0OBBYEFNs9k1FsMhVUjxBQ/ElPNhUou5VtMB8GA1UdIwQYMBaA
FNs9k1FsMhVUjxBQ/ElPNhUou5VtMAwGA1UdEwQFMAMBAf8wDQYJKoZIhvcNAQEF
BQADgYEAcpvB9wdlgzYlTgEvt0rypAAogMdWLDI5kBNhS7sSxUSdQleFKBlwaeFD
yL0R9pTfkS3D6oKNtI9dR6MAmVMpkydsxdrBIG+r7Eq+NPOPAuUMwAOsKzNBcU8K
clq0Jhp/gbzAlYoGh6gRn1xzON9aaUAhKa1GI1Z14emLEBhMe1Q=
-----END CERTIFICATE-----
